Certificate:
    Data:
        Version: 1 (0x0)
        Serial Number: 2 (0x2)
        Signature Algorithm: sha1WithRSAEncryption
        Issuer: C=US, ST=Nebraska, L=Omaha, O=SAFMQ, OU=Sample X509 Certificate, CN=Sample SAFMQ X509 Certificate
        Validity
            Not Before: May 30 15:51:50 2008 GMT
            Not After : Jun  1 15:51:50 2018 GMT
        Subject: OU=Testing, O=Safmq Java Test Client
        Subject Public Key Info:
            Public Key Algorithm: dsaEncryption
            DSA Public Key:
                pub: 
                    27:a5:53:0c:c0:9f:d4:f3:ec:fc:2b:d9:a6:0d:b2:
                    aa:a3:48:83:09:63:51:8e:da:a4:02:06:ed:cd:76:
                    9c:49:9a:8d:61:ae:30:2f:d7:a2:2e:3a:93:d0:d2:
                    50:76:e9:a0:bd:4c:54:9e:1c:38:6d:a1:47:f8:62:
                    74:20:58:cf
                P:   
                    00:fe:cc:86:20:01:4e:47:63:0c:69:0e:b2:74:af:
                    51:34:2d:21:1b:2f:dc:10:64:d6:5f:08:05:f4:a2:
                    b6:79:a1:18:3f:62:97:1a:f5:e9:58:15:c4:7b:4e:
                    13:ba:03:74:a9:56:8a:9c:25:48:7d:65:c0:f2:ce:
                    23:8e:ea:69:73
                Q:   
                    00:9a:5d:14:8f:fb:c4:ff:f0:7c:f1:ea:78:5d:4b:
                    f7:09:ec:fb:21:2b
                G:   
                    5b:13:4c:34:80:67:2f:a5:cb:c4:5b:af:b3:7c:a5:
                    34:a8:57:79:f5:19:1d:3a:13:e7:53:d0:8d:a7:b6:
                    fd:80:1c:7f:37:ec:a7:45:60:8b:79:c9:e2:d0:7c:
                    d9:f2:a7:2c:08:aa:5d:9c:40:76:5b:28:9e:05:fe:
                    cc:c4:bc:05
    Signature Algorithm: sha1WithRSAEncryption
        56:7c:bf:29:d3:d1:03:0a:a1:25:7a:38:f3:09:e2:a1:ad:2b:
        8a:a2:de:e7:fa:36:da:b2:d4:b8:b0:db:15:50:c0:ea:21:f4:
        ca:d1:5b:b4:aa:a4:02:48:b7:97:8f:e0:6b:bb:04:47:8a:b4:
        7e:12:d8:14:eb:76:99:d7:46:1e:09:9b:df:57:41:a2:e2:b3:
        ae:ac:db:1b:89:6c:7a:81:42:a6:11:2f:55:42:04:83:98:15:
        4f:ac:ff:2b:30:6f:47:43:e7:13:67:40:b1:5c:cf:27:79:c2:
        6a:6e:16:bf:90:2e:9e:36:e3:1a:17:0b:66:2c:19:5d:08:09:
        bb:07
-----BEGIN CERTIFICATE-----
MIICfjCCAecCAQIwDQYJKoZIhvcNAQEFBQAwgYoxCzAJBgNVBAYTAlVTMREwDwYD
VQQIEwhOZWJyYXNrYTEOMAwGA1UEBxMFT21haGExDjAMBgNVBAoTBVNBRk1RMSAw
HgYDVQQLExdTYW1wbGUgWDUwOSBDZXJ0aWZpY2F0ZTEmMCQGA1UEAxMdU2FtcGxl
IFNBRk1RIFg1MDkgQ2VydGlmaWNhdGUwHhcNMDgwNTMwMTU1MTUwWhcNMTgwNjAx
MTU1MTUwWjAzMRAwDgYDVQQLEwdUZXN0aW5nMR8wHQYDVQQKExZTYWZtcSBKYXZh
IFRlc3QgQ2xpZW50MIHwMIGoBgcqhkjOOAQBMIGcAkEA/syGIAFOR2MMaQ6ydK9R
NC0hGy/cEGTWXwgF9KK2eaEYP2KXGvXpWBXEe04TugN0qVaKnCVIfWXA8s4jjupp
cwIVAJpdFI/7xP/wfPHqeF1L9wns+yErAkBbE0w0gGcvpcvEW6+zfKU0qFd59Rkd
OhPnU9CNp7b9gBx/N+ynRWCLecni0HzZ8qcsCKpdnEB2WyieBf7MxLwFA0MAAkAn
pVMMwJ/U8+z8K9mmDbKqo0iDCWNRjtqkAgbtzXacSZqNYa4wL9eiLjqT0NJQdumg
vUxUnhw4baFH+GJ0IFjPMA0GCSqGSIb3DQEBBQUAA4GBAFZ8vynT0QMKoSV6OPMJ
4qGtK4qi3uf6Ntqy1Liw2xVQwOoh9MrRW7SqpAJIt5eP4Gu7BEeKtH4S2BTrdpnX
Rh4Jm99XQaLis66s2xuJbHqBQqYRL1VCBIOYFU+s/yswb0dD5xNnQLFczyd5wmpu
Fr+QLp424xoXC2YsGV0ICbsH
-----END CERTIFICATE-----

DSA Traditional Key:
-----BEGIN DSA PRIVATE KEY-----
MIH4AgEAAkEA/syGIAFOR2MMaQ6ydK9RNC0hGy/cEGTWXwgF9KK2eaEYP2KXGvXp
WBXEe04TugN0qVaKnCVIfWXA8s4jjuppcwIVAJpdFI/7xP/wfPHqeF1L9wns+yEr
AkBbE0w0gGcvpcvEW6+zfKU0qFd59RkdOhPnU9CNp7b9gBx/N+ynRWCLecni0HzZ
8qcsCKpdnEB2WyieBf7MxLwFAkAnpVMMwJ/U8+z8K9mmDbKqo0iDCWNRjtqkAgbt
zXacSZqNYa4wL9eiLjqT0NJQdumgvUxUnhw4baFH+GJ0IFjPAhUAji2B7UV7WpgM
Tlyjxf3ID+g6XRk=
-----END DSA PRIVATE KEY-----

PKCS#8 Key:
-----BEGIN PRIVATE KEY-----
MIHHAgEAMIGoBgcqhkjOOAQBMIGcAkEA/syGIAFOR2MMaQ6ydK9RNC0hGy/cEGTW
XwgF9KK2eaEYP2KXGvXpWBXEe04TugN0qVaKnCVIfWXA8s4jjuppcwIVAJpdFI/7
xP/wfPHqeF1L9wns+yErAkBbE0w0gGcvpcvEW6+zfKU0qFd59RkdOhPnU9CNp7b9
gBx/N+ynRWCLecni0HzZ8qcsCKpdnEB2WyieBf7MxLwFBBcCFQCOLYHtRXtamAxO
XKPF/cgP6DpdGQ==
-----END PRIVATE KEY-----
