Certificate:
    Data:
        Version: 3 (0x2)
        Serial Number:
            94:76:77:11:66:1d:8c:2c
        Signature Algorithm: sha1WithRSAEncryption
        Issuer: C=US, ST=Nebraska, L=Omaha, O=SAFMQ, OU=Sample X509 Certificate, CN=Sample SAFMQ X509 Certificate
        Validity
            Not Before: Sep 11 20:08:05 2007 GMT
            Not After : Sep  8 20:08:05 2017 GMT
        Subject: C=US, ST=Nebraska, L=Omaha, O=SAFMQ, OU=Sample X509 Certificate, CN=Sample SAFMQ X509 Certificate
        Subject Public Key Info:
            Public Key Algorithm: rsaEncryption
            RSA Public Key: (1024 bit)
                Modulus (1024 bit):
                    00:9e:55:68:1e:45:98:e0:7b:ca:ca:35:55:28:4f:
                    98:d1:bf:a9:4b:27:ce:58:6a:c5:86:8b:c2:28:64:
                    f7:9e:2b:cc:3c:e5:57:90:99:64:79:45:cb:d8:9d:
                    4a:cc:8f:2e:02:d3:0a:a4:cb:8b:3e:12:46:e3:f3:
                    db:22:69:6b:9b:3f:4b:3e:fd:ce:b3:13:7d:5f:9f:
                    ce:7a:d5:38:82:ec:b6:a8:07:7b:05:9a:34:41:ff:
                    f9:df:8b:33:c3:4b:ed:7f:df:06:8f:aa:34:bf:c7:
                    d4:52:19:0a:b9:87:f7:b9:7e:b1:4f:89:75:35:36:
                    a0:3c:0e:a1:26:33:a6:42:b5
                Exponent: 65537 (0x10001)
        X509v3 extensions:
            X509v3 Subject Key Identifier: 
                C8:2E:4B:94:36:F4:A0:54:11:6A:4E:52:26:7A:5D:1A:DB:0E:96:12
            X509v3 Authority Key Identifier: 
                keyid:C8:2E:4B:94:36:F4:A0:54:11:6A:4E:52:26:7A:5D:1A:DB:0E:96:12
                DirName:/C=US/ST=Nebraska/L=Omaha/O=SAFMQ/OU=Sample X509 Certificate/CN=Sample SAFMQ X509 Certificate
                serial:94:76:77:11:66:1D:8C:2C

            X509v3 Basic Constraints: 
                CA:TRUE
    Signature Algorithm: sha1WithRSAEncryption
        4e:6c:30:01:83:40:fd:a7:9e:09:f4:1e:82:e4:22:b2:74:ad:
        1b:97:3a:a9:ab:00:06:97:96:65:67:de:e1:f0:ac:44:0c:28:
        10:a8:22:17:69:22:ed:33:e4:c2:e0:db:f8:88:ce:05:99:22:
        5a:1e:f1:b0:4e:64:ca:bf:1f:58:81:e1:4b:5d:90:e5:c9:7d:
        5c:80:ba:a3:f5:3a:e1:85:20:a6:62:2c:99:2f:c8:13:c5:86:
        90:db:68:b6:7f:69:34:a2:e4:2b:9f:58:8a:7a:b7:3d:8b:59:
        10:bd:ed:64:6e:d6:2f:36:64:a3:b0:78:91:4b:1e:bf:b3:40:
        1a:82
-----BEGIN CERTIFICATE-----
MIIDhzCCAvCgAwIBAgIJAJR2dxFmHYwsMA0GCSqGSIb3DQEBBQUAMIGKMQswCQYD
VQQGEwJVUzERMA8GA1UECBMITmVicmFza2ExDjAMBgNVBAcTBU9tYWhhMQ4wDAYD
VQQKEwVTQUZNUTEgMB4GA1UECxMXU2FtcGxlIFg1MDkgQ2VydGlmaWNhdGUxJjAk
BgNVBAMTHVNhbXBsZSBTQUZNUSBYNTA5IENlcnRpZmljYXRlMB4XDTA3MDkxMTIw
MDgwNVoXDTE3MDkwODIwMDgwNVowgYoxCzAJBgNVBAYTAlVTMREwDwYDVQQIEwhO
ZWJyYXNrYTEOMAwGA1UEBxMFT21haGExDjAMBgNVBAoTBVNBRk1RMSAwHgYDVQQL
ExdTYW1wbGUgWDUwOSBDZXJ0aWZpY2F0ZTEmMCQGA1UEAxMdU2FtcGxlIFNBRk1R
IFg1MDkgQ2VydGlmaWNhdGUwgZ8wDQYJKoZIhvcNAQEBBQADgY0AMIGJAoGBAJ5V
aB5FmOB7yso1VShPmNG/qUsnzlhqxYaLwihk954rzDzlV5CZZHlFy9idSsyPLgLT
CqTLiz4SRuPz2yJpa5s/Sz79zrMTfV+fznrVOILstqgHewWaNEH/+d+LM8NL7X/f
Bo+qNL/H1FIZCrmH97l+sU+JdTU2oDwOoSYzpkK1AgMBAAGjgfIwge8wHQYDVR0O
BBYEFMguS5Q29KBUEWpOUiZ6XRrbDpYSMIG/BgNVHSMEgbcwgbSAFMguS5Q29KBU
EWpOUiZ6XRrbDpYSoYGQpIGNMIGKMQswCQYDVQQGEwJVUzERMA8GA1UECBMITmVi
cmFza2ExDjAMBgNVBAcTBU9tYWhhMQ4wDAYDVQQKEwVTQUZNUTEgMB4GA1UECxMX
U2FtcGxlIFg1MDkgQ2VydGlmaWNhdGUxJjAkBgNVBAMTHVNhbXBsZSBTQUZNUSBY
NTA5IENlcnRpZmljYXRlggkAlHZ3EWYdjCwwDAYDVR0TBAUwAwEB/zANBgkqhkiG
9w0BAQUFAAOBgQBObDABg0D9p54J9B6C5CKydK0blzqpqwAGl5ZlZ97h8KxEDCgQ
qCIXaSLtM+TC4Nv4iM4FmSJaHvGwTmTKvx9YgeFLXZDlyX1cgLqj9TrhhSCmYiyZ
L8gTxYaQ22i2f2k0ouQrn1iKerc9i1kQve1kbtYvNmSjsHiRSx6/s0Aagg==
-----END CERTIFICATE-----
